target datalayout = "e-m:e-p270:32:32-p271:32:32-p272:64:64-i64:64-i128:128-f80:128-n8:16:32:64-S128"
target triple = "x86_64-pc-linux-gnu"

%struct._zval_struct = type { %union._zend_value, %union.anon, %union.anon.2 }
%union._zend_value = type { i64 }
%union.anon = type { i32 }
%union.anon.2 = type { i32 }
%struct._zend_stack = type { i32, i32, i32, ptr }
%union._zend_function = type { %struct._zend_op_array }
%struct._zend_op_array = type { i8, [3 x i8], i32, ptr, ptr, ptr, i32, i32, ptr, ptr, ptr, ptr, i32, ptr, i32, i32, i32, ptr, ptr, ptr, ptr, ptr, i32, i32, ptr, ptr, ptr, i32, i32, i32, i32, ptr, ptr, [6 x ptr] }
%struct._zend_array = type { %struct._zend_refcounted_h, %union.anon.6, i32, %union.anon.8, i32, i32, i32, i32, i64, ptr }
%struct._zend_refcounted_h = type { i32, %union.anon.4 }
%union.anon.4 = type { i32 }
%union.anon.6 = type { i32 }
%union.anon.8 = type { ptr }
%struct._zend_compiler_globals = type { %struct._zend_stack, ptr, ptr, i32, ptr, ptr, ptr, ptr, i8, i8, i8, i8, i8, %struct._zend_llist, ptr, i8, i8, i8, i8, ptr, i32, i32, %struct._zend_oparray_context, %struct._zend_file_context, ptr, %struct._zend_array, ptr, i64, i8, i8, i8, ptr, ptr, %struct._zend_stack, ptr, i32, ptr, ptr, i64, i64, ptr, ptr, ptr, ptr, i32, ptr, i32, %struct._zend_stack }
%struct._zend_llist = type { ptr, ptr, i64, i64, ptr, i8, ptr }
%struct._zend_oparray_context = type { ptr, ptr, i32, i32, i32, i32, i32, i32, i32, ptr, ptr, ptr, i32, i8 }
%struct._zend_file_context = type { %struct._zend_declarables, ptr, i8, i8, ptr, ptr, ptr, %struct._zend_array }
%struct._zend_declarables = type { i64 }
%struct._zend_closure = type { %struct._zend_object, %union._zend_function, %struct._zval_struct, ptr, ptr }
%struct._zend_object = type { %struct._zend_refcounted_h, i32, i32, ptr, ptr, ptr, [1 x %struct._zval_struct] }
%struct.anon.0 = type { i8, i8, %union.anon.1 }
%union.anon.1 = type { i16 }

@compiler_globals = external global %struct._zend_compiler_globals, align 8

; Function Attrs: alwaysinline nounwind uwtable
define internal zeroext i8 @zval_get_type(ptr noundef %0) #6 {
  %2 = alloca ptr, align 8
  store ptr %0, ptr %2, align 8, !tbaa !9
  %3 = load ptr, ptr %2, align 8, !tbaa !9
  %4 = getelementptr inbounds nuw %struct._zval_struct, ptr %3, i32 0, i32 1
  %5 = getelementptr inbounds nuw %struct.anon.0, ptr %4, i32 0, i32 0
  %6 = load i8, ptr %5, align 8, !tbaa !20
  ret i8 %6
}

; Function Attrs: nounwind uwtable
define internal ptr @zend_closure_get_gc(ptr noundef %0, ptr noundef %1, ptr noundef %2) #0 {
  %4 = alloca ptr, align 8
  %5 = alloca ptr, align 8
  %6 = alloca ptr, align 8
  %7 = alloca ptr, align 8
  store ptr %0, ptr %4, align 8, !tbaa !33
  store ptr %1, ptr %5, align 8, !tbaa !70
  store ptr %2, ptr %6, align 8, !tbaa !122
  call void @llvm.lifetime.start.p0(i64 8, ptr %7) #11
  %8 = load ptr, ptr %4, align 8, !tbaa !33
  store ptr %8, ptr %7, align 8, !tbaa !40
  %9 = load ptr, ptr %7, align 8, !tbaa !40
  %10 = getelementptr inbounds nuw %struct._zend_closure, ptr %9, i32 0, i32 2
  %11 = call zeroext i8 @zval_get_type(ptr noundef %10)
  %12 = zext i8 %11 to i32
  %13 = icmp ne i32 %12, 1
  br i1 %13, label %14, label %17

14:                                               ; preds = %3
  %15 = load ptr, ptr %7, align 8, !tbaa !40
  %16 = getelementptr inbounds nuw %struct._zend_closure, ptr %15, i32 0, i32 2
  br label %18

17:                                               ; preds = %3
  br label %18

18:                                               ; preds = %17, %14
  %19 = phi ptr [ %16, %14 ], [ null, %17 ]
  %20 = load ptr, ptr %5, align 8, !tbaa !70
  store ptr %19, ptr %20, align 8, !tbaa !9
  %21 = load ptr, ptr %7, align 8, !tbaa !40
  %22 = getelementptr inbounds nuw %struct._zend_closure, ptr %21, i32 0, i32 2
  %23 = call zeroext i8 @zval_get_type(ptr noundef %22)
  %24 = zext i8 %23 to i32
  %25 = icmp ne i32 %24, 1
  %26 = select i1 %25, i32 1, i32 0
  %27 = load ptr, ptr %6, align 8, !tbaa !122
  store i32 %26, ptr %27, align 4, !tbaa !18
  %28 = load ptr, ptr %7, align 8, !tbaa !40
  %29 = getelementptr inbounds nuw %struct._zend_closure, ptr %28, i32 0, i32 1
  %30 = load i8, ptr %29, align 8, !tbaa !20
  %31 = zext i8 %30 to i32
  %32 = icmp eq i32 %31, 2
  br i1 %32, label %33, label %64

33:                                               ; preds = %18
  %34 = load ptr, ptr %7, align 8, !tbaa !40
  %35 = getelementptr inbounds nuw %struct._zend_closure, ptr %34, i32 0, i32 1
  %36 = getelementptr inbounds nuw %struct._zend_op_array, ptr %35, i32 0, i32 2
  %37 = load i32, ptr %36, align 4, !tbaa !20
  %38 = and i32 %37, 8388608
  %39 = icmp ne i32 %38, 0
  br i1 %39, label %64, label %40

40:                                               ; preds = %33
  %41 = load ptr, ptr %7, align 8, !tbaa !40
  %42 = getelementptr inbounds nuw %struct._zend_closure, ptr %41, i32 0, i32 1
  %43 = getelementptr inbounds nuw %struct._zend_op_array, ptr %42, i32 0, i32 18
  %44 = load ptr, ptr %43, align 8, !tbaa !20
  %45 = ptrtoint ptr %44 to i64
  %46 = and i64 %45, 1
  %47 = icmp ne i64 %46, 0
  br i1 %47, label %48, label %57

48:                                               ; preds = %40
  %49 = load ptr, ptr getelementptr inbounds nuw (%struct._zend_compiler_globals, ptr @compiler_globals, i32 0, i32 37), align 8, !tbaa !124
  %50 = load ptr, ptr %7, align 8, !tbaa !40
  %51 = getelementptr inbounds nuw %struct._zend_closure, ptr %50, i32 0, i32 1
  %52 = getelementptr inbounds nuw %struct._zend_op_array, ptr %51, i32 0, i32 18
  %53 = load ptr, ptr %52, align 8, !tbaa !20
  %54 = ptrtoint ptr %53 to i64
  %55 = getelementptr inbounds i8, ptr %49, i64 %54
  %56 = load ptr, ptr %55, align 8, !tbaa !67
  br label %62

57:                                               ; preds = %40
  %58 = load ptr, ptr %7, align 8, !tbaa !40
  %59 = getelementptr inbounds nuw %struct._zend_closure, ptr %58, i32 0, i32 1
  %60 = getelementptr inbounds nuw %struct._zend_op_array, ptr %59, i32 0, i32 18
  %61 = load ptr, ptr %60, align 8, !tbaa !20
  br label %62

62:                                               ; preds = %57, %48
  %63 = phi ptr [ %56, %48 ], [ %61, %57 ]
  br label %65

64:                                               ; preds = %33, %18
  br label %65

65:                                               ; preds = %64, %62
  %66 = phi ptr [ %63, %62 ], [ null, %64 ]
  call void @llvm.lifetime.end.p0(i64 8, ptr %7) #11
  ret ptr %66
}