; Function Attrs: mustprogress nofree norecurse nosync nounwind willreturn memory(read, argmem: readwrite, inaccessiblemem: none) uwtable
define internal ptr @zend_closure_get_gc(ptr noundef %0, ptr noundef writeonly captures(none) initializes((0, 8)) %1, ptr noundef writeonly captures(none) initializes((0, 4)) %2) #10 {
  %4 = getelementptr inbounds nuw i8, ptr %0, i64 312
  %5 = getelementptr inbounds nuw i8, ptr %0, i64 320
  %6 = load i8, ptr %5, align 8, !tbaa !15
  %.not = icmp eq i8 %6, 1
  %7 = select i1 %.not, ptr null, ptr %4
  store ptr %7, ptr %1, align 8, !tbaa !127
  %8 = load i8, ptr %5, align 8, !tbaa !15
  %.not11 = icmp ne i8 %8, 1
  %9 = zext i1 %.not11 to i32
  store i32 %9, ptr %2, align 4, !tbaa !85
  %10 = getelementptr inbounds nuw i8, ptr %0, i64 56
  %11 = load i8, ptr %10, align 8, !tbaa !15
  %12 = icmp eq i8 %11, 2
  br i1 %12, label %13, label %26

13:                                               ; preds = %3
  %14 = getelementptr inbounds nuw i8, ptr %0, i64 60
  %15 = load i32, ptr %14, align 4, !tbaa !15
  %16 = and i32 %15, 8388608
  %.not12 = icmp eq i32 %16, 0
  br i1 %.not12, label %17, label %26

17:                                               ; preds = %13
  %18 = getelementptr inbounds nuw i8, ptr %0, i64 168
  %19 = load ptr, ptr %18, align 8, !tbaa !15
  %20 = ptrtoint ptr %19 to i64
  %21 = and i64 %20, 1
  %.not13 = icmp eq i64 %21, 0
  br i1 %.not13, label %26, label %22

22:                                               ; preds = %17
  %23 = load ptr, ptr getelementptr inbounds nuw (i8, ptr @compiler_globals, i64 512), align 8, !tbaa !102
  %24 = getelementptr inbounds i8, ptr %23, i64 %20
  %25 = load ptr, ptr %24, align 8, !tbaa !89
  br label %26

26:                                               ; preds = %17, %3, %13, %22
  %27 = phi ptr [ %25, %22 ], [ null, %13 ], [ null, %3 ], [ %19, %17 ]
  ret ptr %27
}